; Function Attrs: nounwind uwtable
define hidden void @phpdbg_unwatch_parent_ht(ptr nocapture noundef readonly %0) local_unnamed_addr #0 {
  %2 = alloca %struct.uffdio_register, align 8
  %3 = getelementptr inbounds i8, ptr %0, i64 8
  %4 = load ptr, ptr %3, align 8
  %5 = getelementptr inbounds i8, ptr %4, i64 16
  %6 = load i32, ptr %5, align 8
  %7 = icmp eq i32 %6, 5
  br i1 %7, label %8, label %51

8:                                                ; preds = %1
  %9 = getelementptr inbounds i8, ptr %0, i64 96
  %10 = load ptr, ptr %9, align 8
  %11 = ptrtoint ptr %10 to i64
  %12 = tail call ptr @phpdbg_btree_find(ptr noundef nonnull getelementptr inbounds (%struct._zend_phpdbg_globals, ptr @phpdbg_globals, i64 0, i32 14), i64 noundef %11) #17
  %13 = load ptr, ptr %9, align 8
  %14 = icmp ne ptr %13, null
  tail call void @llvm.assume(i1 %14)
  %.not = icmp eq ptr %12, null
  br i1 %.not, label %51, label %15

15:                                               ; preds = %8
  %16 = getelementptr inbounds i8, ptr %12, i64 8
  %17 = load ptr, ptr %16, align 8
  %18 = getelementptr inbounds i8, ptr %17, i64 160
  %19 = getelementptr inbounds i8, ptr %17, i64 188
  %20 = load i32, ptr %19, align 4
  %21 = icmp eq i32 %20, 1
  br i1 %21, label %22, label %47

22:                                               ; preds = %15
  tail call void @zend_hash_destroy(ptr noundef nonnull %18) #17
  %23 = getelementptr inbounds i8, ptr %17, i64 152
  %24 = load ptr, ptr %23, align 8
  %25 = ptrtoint ptr %24 to i64
  %26 = tail call i32 @phpdbg_btree_delete(ptr noundef nonnull getelementptr inbounds (%struct._zend_phpdbg_globals, ptr @phpdbg_globals, i64 0, i32 14), i64 noundef %25) #17
  %.val = load ptr, ptr %17, align 8
  %27 = ptrtoint ptr %.val to i64
  %28 = tail call i32 @phpdbg_btree_delete(ptr noundef nonnull getelementptr inbounds (%struct._zend_phpdbg_globals, ptr @phpdbg_globals, i64 0, i32 13), i64 noundef %27) #17
  %.val14 = load ptr, ptr %17, align 8
  %29 = getelementptr i8, ptr %17, i64 8
  %.val15 = load i64, ptr %29, align 8
  call void @llvm.lifetime.start.p0(i64 32, ptr nonnull %2)
  %30 = ptrtoint ptr %.val14 to i64
  %31 = load i64, ptr @phpdbg_pagesize, align 8
  %32 = sub i64 0, %31
  %33 = and i64 %32, %30
  %34 = add i64 %.val15, -1
  %35 = add i64 %34, %30
  %36 = and i64 %35, %32
  %37 = sub i64 %36, %33
  %38 = add i64 %37, %31
  %39 = load i32, ptr getelementptr inbounds (%struct._zend_phpdbg_globals, ptr @phpdbg_globals, i64 0, i32 11), align 8
  %.not.i.i = icmp eq i32 %39, 0
  br i1 %.not.i.i, label %44, label %40

40:                                               ; preds = %22
  store i64 %33, ptr %2, align 8
  %.sroa.4.0..sroa_idx5.i.i = getelementptr inbounds i8, ptr %2, i64 8
  store i64 %38, ptr %.sroa.4.0..sroa_idx5.i.i, align 8
  %41 = getelementptr inbounds i8, ptr %2, i64 16
  store i64 2, ptr %41, align 8
  %42 = getelementptr inbounds i8, ptr %2, i64 24
  store i64 0, ptr %42, align 8
  %43 = call i32 (i32, i64, ...) @ioctl(i32 noundef %39, i64 noundef 2148575745, ptr noundef nonnull %2) #17
  br label %phpdbg_deactivate_watchpoint.exit

44:                                               ; preds = %22
  %45 = inttoptr i64 %33 to ptr
  %46 = tail call i32 @mprotect(ptr noundef %45, i64 noundef %38, i32 noundef 3) #17
  br label %phpdbg_deactivate_watchpoint.exit

phpdbg_deactivate_watchpoint.exit:                ; preds = %40, %44
  call void @llvm.lifetime.end.p0(i64 32, ptr nonnull %2)
  call void @_efree(ptr noundef nonnull %17) #17
  br label %51

47:                                               ; preds = %15
  %48 = getelementptr inbounds i8, ptr %0, i64 104
  %49 = load ptr, ptr %48, align 8
  %50 = tail call i32 @zend_hash_del(ptr noundef nonnull %18, ptr noundef %49) #17
  br label %51

51:                                               ; preds = %8, %47, %phpdbg_deactivate_watchpoint.exit, %1
  ret void
}